; ModuleID = '49/907.c'
source_filename = "49/907.c"
target datalayout = "e-m:e-p270:32:32-p271:32:32-p272:64:64-i64:64-f80:128-n8:16:32:64-S128"
target triple = "x86_64-pc-linux-gnu"

@.str = private unnamed_addr constant [3 x i8] c"%c\00", align 1
@.str.1 = private unnamed_addr constant [2 x i8] c"\0A\00", align 1

; Function Attrs: noinline nounwind uwtable
define dso_local i32 @judge(i8* %0, i32 %1) #0 {
  %3 = alloca i8*, align 8
  %4 = alloca i32, align 4
  %5 = alloca i8*, align 8
  %6 = alloca i8*, align 8
  %7 = alloca i32, align 4
  store i8* %0, i8** %3, align 8
  store i32 %1, i32* %4, align 4
  %8 = load i8*, i8** %3, align 8
  store i8* %8, i8** %6, align 8
  store i32 1, i32* %7, align 4
  %9 = load i8*, i8** %6, align 8
  %10 = load i32, i32* %4, align 4
  %11 = sext i32 %10 to i64
  %12 = getelementptr inbounds i8, i8* %9, i64 %11
  %13 = getelementptr inbounds i8, i8* %12, i64 -1
  store i8* %13, i8** %5, align 8
  br label %14

14:                                               ; preds = %32, %2
  %15 = load i8*, i8** %6, align 8
  %16 = load i8*, i8** %5, align 8
  %17 = icmp ule i8* %15, %16
  br i1 %17, label %18, label %21

18:                                               ; preds = %14
  %19 = load i32, i32* %7, align 4
  %20 = icmp ne i32 %19, 0
  br label %21

21:                                               ; preds = %18, %14
  %22 = phi i1 [ false, %14 ], [ %20, %18 ]
  br i1 %22, label %23, label %37

23:                                               ; preds = %21
  %24 = load i8*, i8** %6, align 8
  %25 = load i8, i8* %24, align 1
  %26 = sext i8 %25 to i32
  %27 = load i8*, i8** %5, align 8
  %28 = load i8, i8* %27, align 1
  %29 = sext i8 %28 to i32
  %30 = icmp ne i32 %26, %29
  br i1 %30, label %31, label %32

31:                                               ; preds = %23
  store i32 0, i32* %7, align 4
  br label %32

32:                                               ; preds = %31, %23
  %33 = load i8*, i8** %6, align 8
  %34 = getelementptr inbounds i8, i8* %33, i32 1
  store i8* %34, i8** %6, align 8
  %35 = load i8*, i8** %5, align 8
  %36 = getelementptr inbounds i8, i8* %35, i32 -1
  store i8* %36, i8** %5, align 8
  br label %14

37:                                               ; preds = %21
  %38 = load i32, i32* %7, align 4
  ret i32 %38
}

; Function Attrs: noinline nounwind uwtable
define dso_local void @pp(i8* %0, i32 %1) #0 {
  %3 = alloca i8*, align 8
  %4 = alloca i32, align 4
  %5 = alloca i32, align 4
  %6 = alloca i8*, align 8
  store i8* %0, i8** %3, align 8
  store i32 %1, i32* %4, align 4
  %7 = load i8*, i8** %3, align 8
  store i8* %7, i8** %6, align 8
  store i32 1, i32* %5, align 4
  br label %8

8:                                                ; preds = %21, %2
  %9 = load i32, i32* %5, align 4
  %10 = load i32, i32* %4, align 4
  %11 = icmp sle i32 %9, %10
  br i1 %11, label %12, label %24

12:                                               ; preds = %8
  %13 = load i8*, i8** %3, align 8
  %14 = load i32, i32* %5, align 4
  %15 = sext i32 %14 to i64
  %16 = getelementptr inbounds i8, i8* %13, i64 %15
  %17 = getelementptr inbounds i8, i8* %16, i64 -1
  %18 = load i8, i8* %17, align 1
  %19 = sext i8 %18 to i32
  %20 = call i32 (i8*, ...) @printf(i8* getelementptr inbounds ([3 x i8], [3 x i8]* @.str, i64 0, i64 0), i32 %19)
  br label %21

21:                                               ; preds = %12
  %22 = load i32, i32* %5, align 4
  %23 = add nsw i32 %22, 1
  store i32 %23, i32* %5, align 4
  br label %8

24:                                               ; preds = %8
  %25 = call i32 (i8*, ...) @printf(i8* getelementptr inbounds ([2 x i8], [2 x i8]* @.str.1, i64 0, i64 0))
  ret void
}

declare dso_local i32 @printf(i8*, ...) #1

; Function Attrs: noinline nounwind uwtable
define dso_local void @main() #0 {
  %1 = alloca [3243 x i8], align 16
  %2 = alloca i32, align 4
  %3 = alloca i32, align 4
  %4 = alloca i32, align 4
  %5 = alloca i32, align 4
  %6 = alloca i8*, align 8
  %7 = getelementptr inbounds [3243 x i8], [3243 x i8]* %1, i64 0, i64 0
  %8 = call i32 (i8*, ...) bitcast (i32 (...)* @gets to i32 (i8*, ...)*)(i8* %7)
  %9 = getelementptr inbounds [3243 x i8], [3243 x i8]* %1, i64 0, i64 0
  %10 = call i64 @strlen(i8* %9) #3
  %11 = trunc i64 %10 to i32
  store i32 %11, i32* %5, align 4
  %12 = getelementptr inbounds [3243 x i8], [3243 x i8]* %1, i64 0, i64 0
  store i8* %12, i8** %6, align 8
  store i32 2, i32* %2, align 4
  br label %13

13:                                               ; preds = %46, %0
  %14 = load i32, i32* %2, align 4
  %15 = load i32, i32* %5, align 4
  %16 = icmp sle i32 %14, %15
  br i1 %16, label %17, label %49

17:                                               ; preds = %13
  store i32 1, i32* %3, align 4
  br label %18

18:                                               ; preds = %42, %17
  %19 = load i32, i32* %3, align 4
  %20 = load i32, i32* %5, align 4
  %21 = load i32, i32* %2, align 4
  %22 = sub nsw i32 %20, %21
  %23 = add nsw i32 %22, 1
  %24 = icmp sle i32 %19, %23
  br i1 %24, label %25, label %45

25:                                               ; preds = %18
  %26 = load i8*, i8** %6, align 8
  %27 = load i32, i32* %3, align 4
  %28 = sext i32 %27 to i64
  %29 = getelementptr inbounds i8, i8* %26, i64 %28
  %30 = getelementptr inbounds i8, i8* %29, i64 -1
  %31 = load i32, i32* %2, align 4
  %32 = call i32 @judge(i8* %30, i32 %31)
  %33 = icmp ne i32 %32, 0
  br i1 %33, label %34, label %41

34:                                               ; preds = %25
  %35 = load i8*, i8** %6, align 8
  %36 = load i32, i32* %3, align 4
  %37 = sext i32 %36 to i64
  %38 = getelementptr inbounds i8, i8* %35, i64 %37
  %39 = getelementptr inbounds i8, i8* %38, i64 -1
  %40 = load i32, i32* %2, align 4
  call void @pp(i8* %39, i32 %40)
  br label %41

41:                                               ; preds = %34, %25
  br label %42

42:                                               ; preds = %41
  %43 = load i32, i32* %3, align 4
  %44 = add nsw i32 %43, 1
  store i32 %44, i32* %3, align 4
  br label %18

45:                                               ; preds = %18
  br label %46

46:                                               ; preds = %45
  %47 = load i32, i32* %2, align 4
  %48 = add nsw i32 %47, 1
  store i32 %48, i32* %2, align 4
  br label %13

49:                                               ; preds = %13
  ret void
}

declare dso_local i32 @gets(...) #1

; Function Attrs: nounwind readonly
declare dso_local i64 @strlen(i8*) #2


!llvm.module.flags = !{!0}
!llvm.ident = !{!1}

!0 = !{i32 1, !"wchar_size", i32 4}
!1 = !{!"clang version 10.0.0-4ubuntu1 "}
